target datalayout = "e-m:e-p270:32:32-p271:32:32-p272:64:64-i64:64-i128:128-f80:128-n8:16:32:64-S128"
target triple = "x86_64-pc-linux-gnu"

%struct.ldbState = type { ptr, i32, i32, ptr, ptr, ptr, [64 x i32], i32, i32, i32, ptr, i32, i32, ptr, i64, i32 }
%struct.luaCtx = type { ptr, ptr, ptr, ptr, i64 }
%struct.redisServer = type { i32, i64, ptr, ptr, ptr, i32, i32, i32, i32, i32, ptr, ptr, ptr, ptr, ptr, i32, i32, i32, i32, i64, i32, i32, i32, i32, ptr, i32, i32, [41 x i8], i32, i64, i32, i32, i32, ptr, ptr, i32, i32, i64, ptr, ptr, ptr, ptr, [2 x i32], i32, i32, i32, i32, i32, i32, [16 x ptr], i32, ptr, ptr, i32, [8 x %struct.connListener], i32, %struct.connListener, ptr, ptr, ptr, ptr, ptr, ptr, ptr, ptr, ptr, ptr, i32, ptr, i32, ptr, [3 x %struct.pause_event], [256 x i8], ptr, i64, i32, i32, [128 x i32], i32, i32, i64, i32, i32, i32, i32, i32, i64, i64, i64, i64, i64, i64, i64, i64, i64, i64, double, i64, i64, i64, i64, i64, i64, i64, i64, i64, i64, i64, i64, i64, i64, i64, i64, i64, i64, i64, i64, i64, double, i64, i64, i64, i64, i64, ptr, i64, i64, i64, %struct.malloc_stats, i64, i64, i64, i64, i64, i64, i64, i64, i64, i64, i64, i64, double, [4 x i64], i64, i64, i64, i64, [128 x i64], [128 x i64], i64, i64, [7 x %struct.anon], i64, i64, i64, i64, i64, i64, [4 x %struct.durationStats], i32, i32, i32, i32, i32, i32, i32, i32, i32, i32, i32, i32, i64, i32, i32, i32, i32, i64, i64, i32, i32, i32, i32, i32, ptr, [3 x %struct.clientBufferLimitsConfig], i32, i32, i32, ptr, i32, i32, i32, i32, i32, i32, ptr, ptr, i32, i32, i64, i64, i64, i64, i64, i32, i32, ptr, i32, i32, i64, i64, i64, i64, i64, i32, i32, i64, i32, i32, i32, i32, i32, i32, i32, i32, ptr, i32, i64, i64, i64, i64, i32, ptr, i32, ptr, i32, i32, i32, i64, i64, i64, i64, i32, i32, i32, i32, i32, i32, ptr, i32, i32, ptr, i32, i32, i32, [2 x i32], i32, %struct.redisOpArray, i32, ptr, i32, ptr, i32, i32, i32, i32, i32, i32, i32, [41 x i8], [41 x i8], i64, i64, i64, i64, i32, i32, ptr, i64, i64, %struct.replDataBuf, i64, i64, i32, i32, i32, i32, i32, i32, i32, i32, i32, i64, ptr, i64, ptr, ptr, ptr, i32, i32, ptr, ptr, i32, i32, i32, i64, i64, i64, i64, ptr, ptr, i32, ptr, i64, i32, i32, i32, i64, i32, i32, i32, i32, ptr, i32, i32, [41 x i8], i64, i32, ptr, i32, i32, i64, i64, i32, i32, i32, i32, i32, i64, [3 x i32], i32, i32, i32, [10 x i32], ptr, ptr, i32, i64, ptr, ptr, i32, i32, i32, i32, i64, i64, i64, i64, i64, i64, i64, i64, i64, i64, i32, i32, i64, i64, i32, i64, i64, i64, i64, i64, ptr, ptr, i32, ptr, i32, i32, i32, i32, i64, i64, ptr, ptr, i32, i32, i32, i32, i32, ptr, ptr, ptr, i32, i32, i32, i32, i32, i32, i32, i64, i32, i32, i64, i32, i32, i32, i32, i32, i32, i32, i64, ptr, ptr, i64, ptr, i32, %struct.aclInfo, i32, i64, i32, i32, i32, %struct.redisTLSContextConfig, ptr, ptr, ptr, ptr, ptr, i64, i32, ptr, i32, i32, i32, i64, i32, ptr }
%struct.connListener = type { [16 x i32], i32, ptr, i32, i32, ptr, ptr }
%struct.pause_event = type { i32, i64 }
%struct.malloc_stats = type { i64, i64, i64, i64, i64, i64, i64, i64, i64, i64, i64 }
%struct.anon = type { i64, i64, [16 x i64], i32 }
%struct.durationStats = type { i64, i64, i64 }
%struct.clientBufferLimitsConfig = type { i64, i64, i64 }
%struct.redisOpArray = type { ptr, i32, i32 }
%struct.replDataBuf = type { ptr, i64, i64, i64, i64 }
%struct.aclInfo = type { i64, i64, i64, i64 }
%struct.redisTLSContextConfig = type { ptr, ptr, ptr, ptr, ptr, ptr, ptr, ptr, ptr, ptr, ptr, ptr, i32, i32, i32, i32 }
%struct.client = type { i64, i64, ptr, i8, i8, i8, i8, i32, ptr, ptr, ptr, ptr, ptr, i64, i64, i32, ptr, i32, i32, ptr, i64, ptr, ptr, ptr, ptr, ptr, i32, i32, i64, ptr, i64, ptr, i64, i64, i64, i32, ptr, i64, i64, i32, i32, i32, i32, i64, i64, ptr, i64, i64, i64, i64, i64, i64, i64, i64, [41 x i8], i32, ptr, i32, i32, i64, %struct.multiState, %struct.blockingState, i64, ptr, ptr, ptr, ptr, ptr, ptr, ptr, ptr, ptr, ptr, ptr, ptr, ptr, ptr, i64, ptr, i64, i32, ptr, ptr, ptr, i64, %struct.listNode, i64, i64, i32, i64, ptr }
%struct.multiState = type { ptr, i32, i32, i32, i64, i32 }
%struct.blockingState = type { i32, i64, i32, ptr, i32, i32, i64, ptr, ptr, i64 }
%struct.listNode = type { ptr, ptr, ptr }
%struct.list = type { ptr, ptr, ptr, ptr, ptr, i64 }

@ldb = dso_local global %struct.ldbState zeroinitializer, align 8
@lctx = dso_local global %struct.luaCtx zeroinitializer, align 8
@server = external global %struct.redisServer, align 8
@.str.3 = private unnamed_addr constant [28 x i8] c"Failed creating the lua VM.\00", align 1
@.str.4 = private unnamed_addr constant [6 x i8] c"redis\00", align 1
@.str.5 = private unnamed_addr constant [11 x i8] c"breakpoint\00", align 1
@.str.6 = private unnamed_addr constant [6 x i8] c"debug\00", align 1
@.str.7 = private unnamed_addr constant [19 x i8] c"replicate_commands\00", align 1
@.str.9 = private unnamed_addr constant [17 x i8] c"@err_handler_def\00", align 1

; Function Attrs: nounwind uwtable
define dso_local void @ldbInit() #0 {
  store ptr null, ptr @ldb, align 8, !tbaa !74
  store i32 0, ptr getelementptr inbounds nuw (%struct.ldbState, ptr @ldb, i32 0, i32 1), align 8, !tbaa !26
  %1 = call ptr @listCreate()
  store ptr %1, ptr getelementptr inbounds nuw (%struct.ldbState, ptr @ldb, i32 0, i32 3), align 8, !tbaa !34
  %2 = load ptr, ptr getelementptr inbounds nuw (%struct.ldbState, ptr @ldb, i32 0, i32 3), align 8, !tbaa !34
  %3 = getelementptr inbounds nuw %struct.list, ptr %2, i32 0, i32 3
  store ptr @sdsfreegeneric, ptr %3, align 8, !tbaa !75
  %4 = call ptr @listCreate()
  store ptr %4, ptr getelementptr inbounds nuw (%struct.ldbState, ptr @ldb, i32 0, i32 5), align 8, !tbaa !77
  store ptr null, ptr getelementptr inbounds nuw (%struct.ldbState, ptr @ldb, i32 0, i32 10), align 8, !tbaa !78
  store i32 0, ptr getelementptr inbounds nuw (%struct.ldbState, ptr @ldb, i32 0, i32 11), align 8, !tbaa !79
  %5 = call ptr @sdsempty()
  store ptr %5, ptr getelementptr inbounds nuw (%struct.ldbState, ptr @ldb, i32 0, i32 13), align 8, !tbaa !80
  ret void
}

; Function Attrs: nounwind uwtable
define dso_local void @scriptingInit(i32 noundef %0) #0 {
  %2 = alloca i32, align 4
  %3 = alloca ptr, align 8
  %4 = alloca ptr, align 8
  store i32 %0, ptr %2, align 4, !tbaa !19
  %5 = load i32, ptr %2, align 4, !tbaa !19
  %6 = icmp ne i32 %5, 0
  br i1 %6, label %7, label %8

7:                                                ; preds = %1
  store ptr null, ptr getelementptr inbounds nuw (%struct.luaCtx, ptr @lctx, i32 0, i32 1), align 8, !tbaa !35
  store i32 0, ptr getelementptr inbounds nuw (%struct.redisServer, ptr @server, i32 0, i32 406), align 4, !tbaa !39
  call void @ldbInit()
  br label %8

8:                                                ; preds = %7, %1
  call void @llvm.lifetime.start.p0(i64 8, ptr %3) #14
  %9 = call ptr @createLuaState()
  store ptr %9, ptr %3, align 8, !tbaa !24
  %10 = load ptr, ptr %3, align 8, !tbaa !24
  %11 = icmp eq ptr %10, null
  br i1 %11, label %12, label %20

12:                                               ; preds = %8
  br label %13

13:                                               ; preds = %12
  %14 = load i32, ptr getelementptr inbounds nuw (%struct.redisServer, ptr @server, i32 0, i32 159), align 8, !tbaa !60
  %15 = icmp slt i32 3, %14
  br i1 %15, label %16, label %17

16:                                               ; preds = %13
  br label %19

17:                                               ; preds = %13
  call void (i32, ptr, ...) @_serverLog(i32 noundef 3, ptr noundef @.str.3)
  br label %18

18:                                               ; preds = %17
  br label %19

19:                                               ; preds = %18, %16
  call void @exit(i32 noundef 1) #15
  unreachable

20:                                               ; preds = %8
  %21 = call ptr @dictCreate(ptr noundef @shaScriptObjectDictType)
  store ptr %21, ptr getelementptr inbounds nuw (%struct.luaCtx, ptr @lctx, i32 0, i32 2), align 8, !tbaa !61
  %22 = call ptr @listCreate()
  store ptr %22, ptr getelementptr inbounds nuw (%struct.luaCtx, ptr @lctx, i32 0, i32 3), align 8, !tbaa !62
  store i64 0, ptr getelementptr inbounds nuw (%struct.luaCtx, ptr @lctx, i32 0, i32 4), align 8, !tbaa !63
  %23 = load ptr, ptr %3, align 8, !tbaa !24
  call void @luaRegisterRedisAPI(ptr noundef %23)
  %24 = load ptr, ptr %3, align 8, !tbaa !24
  call void @lua_getfield(ptr noundef %24, i32 noundef -10002, ptr noundef @.str.4)
  %25 = load ptr, ptr %3, align 8, !tbaa !24
  call void @lua_pushstring(ptr noundef %25, ptr noundef @.str.5)
  %26 = load ptr, ptr %3, align 8, !tbaa !24
  call void @lua_pushcclosure(ptr noundef %26, ptr noundef @luaRedisBreakpointCommand, i32 noundef 0)
  %27 = load ptr, ptr %3, align 8, !tbaa !24
  call void @lua_settable(ptr noundef %27, i32 noundef -3)
  %28 = load ptr, ptr %3, align 8, !tbaa !24
  call void @lua_pushstring(ptr noundef %28, ptr noundef @.str.6)
  %29 = load ptr, ptr %3, align 8, !tbaa !24
  call void @lua_pushcclosure(ptr noundef %29, ptr noundef @luaRedisDebugCommand, i32 noundef 0)
  %30 = load ptr, ptr %3, align 8, !tbaa !24
  call void @lua_settable(ptr noundef %30, i32 noundef -3)
  %31 = load ptr, ptr %3, align 8, !tbaa !24
  call void @lua_pushstring(ptr noundef %31, ptr noundef @.str.7)
  %32 = load ptr, ptr %3, align 8, !tbaa !24
  call void @lua_pushcclosure(ptr noundef %32, ptr noundef @luaRedisReplicateCommandsCommand, i32 noundef 0)
  %33 = load ptr, ptr %3, align 8, !tbaa !24
  call void @lua_settable(ptr noundef %33, i32 noundef -3)
  %34 = load ptr, ptr %3, align 8, !tbaa !24
  call void @lua_setfield(ptr noundef %34, i32 noundef -10002, ptr noundef @.str.4)
  call void @llvm.lifetime.start.p0(i64 8, ptr %4) #14
  store ptr @.str.8, ptr %4, align 8, !tbaa !16
  %35 = load ptr, ptr %3, align 8, !tbaa !24
  %36 = load ptr, ptr %4, align 8, !tbaa !16
  %37 = load ptr, ptr %4, align 8, !tbaa !16
  %38 = call i64 @strlen(ptr noundef %37) #13
  %39 = call i32 @luaL_loadbuffer(ptr noundef %35, ptr noundef %36, i64 noundef %38, ptr noundef @.str.9)
  %40 = load ptr, ptr %3, align 8, !tbaa !24
  %41 = call i32 @lua_pcall(ptr noundef %40, i32 noundef 0, i32 noundef 0, i32 noundef 0)
  call void @llvm.lifetime.end.p0(i64 8, ptr %4) #14
  %42 = load ptr, ptr getelementptr inbounds nuw (%struct.luaCtx, ptr @lctx, i32 0, i32 1), align 8, !tbaa !35
  %43 = icmp eq ptr %42, null
  br i1 %43, label %44, label %54

44:                                               ; preds = %20
  %45 = call ptr @createClient(ptr noundef null)
  store ptr %45, ptr getelementptr inbounds nuw (%struct.luaCtx, ptr @lctx, i32 0, i32 1), align 8, !tbaa !35
  %46 = load ptr, ptr getelementptr inbounds nuw (%struct.luaCtx, ptr @lctx, i32 0, i32 1), align 8, !tbaa !35
  %47 = getelementptr inbounds nuw %struct.client, ptr %46, i32 0, i32 1
  %48 = load i64, ptr %47, align 8, !tbaa !64
  %49 = or i64 %48, 256
  store i64 %49, ptr %47, align 8, !tbaa !64
  %50 = load ptr, ptr getelementptr inbounds nuw (%struct.luaCtx, ptr @lctx, i32 0, i32 1), align 8, !tbaa !35
  %51 = getelementptr inbounds nuw %struct.client, ptr %50, i32 0, i32 1
  %52 = load i64, ptr %51, align 8, !tbaa !64
  %53 = or i64 %52, 2199023255552
  store i64 %53, ptr %51, align 8, !tbaa !64
  br label %54

54:                                               ; preds = %44, %20
  %55 = load ptr, ptr %3, align 8, !tbaa !24
  call void @lua_pushvalue(ptr noundef %55, i32 noundef -10002)
  %56 = load ptr, ptr %3, align 8, !tbaa !24
  call void @luaSetErrorMetatable(ptr noundef %56)
  %57 = load ptr, ptr %3, align 8, !tbaa !24
  call void @luaSetTableProtectionRecursively(ptr noundef %57)
  %58 = load ptr, ptr %3, align 8, !tbaa !24
  call void @lua_settop(ptr noundef %58, i32 noundef -2)
  %59 = load ptr, ptr %3, align 8, !tbaa !24
  store ptr %59, ptr @lctx, align 8, !tbaa !73
  call void @llvm.lifetime.end.p0(i64 8, ptr %3) #14
  ret void
}