; Function Attrs: nounwind uwtable
define dso_local void @scriptingInit(i32 noundef %0) local_unnamed_addr #0 {
  %.not = icmp eq i32 %0, 0
  br i1 %.not, label %7, label %2

2:                                                ; preds = %1
  store ptr null, ptr getelementptr inbounds nuw (i8, ptr @lctx, i64 8), align 8, !tbaa !27
  store i32 0, ptr getelementptr inbounds nuw (i8, ptr @server, i64 8036), align 4, !tbaa !33
  store ptr null, ptr @ldb, align 8, !tbaa !54
  store i32 0, ptr getelementptr inbounds nuw (i8, ptr @ldb, i64 8), align 8, !tbaa !16
  %3 = tail call ptr @listCreate() #19
  store ptr %3, ptr getelementptr inbounds nuw (i8, ptr @ldb, i64 16), align 8, !tbaa !26
  %4 = getelementptr inbounds nuw i8, ptr %3, i64 24
  store ptr @sdsfreegeneric, ptr %4, align 8, !tbaa !55
  %5 = tail call ptr @listCreate() #19
  store ptr %5, ptr getelementptr inbounds nuw (i8, ptr @ldb, i64 32), align 8, !tbaa !57
  store ptr null, ptr getelementptr inbounds nuw (i8, ptr @ldb, i64 312), align 8, !tbaa !58
  store i32 0, ptr getelementptr inbounds nuw (i8, ptr @ldb, i64 320), align 8, !tbaa !59
  %6 = tail call ptr @sdsempty() #19
  store ptr %6, ptr getelementptr inbounds nuw (i8, ptr @ldb, i64 328), align 8, !tbaa !60
  br label %7

7:                                                ; preds = %2, %1
  %8 = tail call ptr @createLuaState() #19
  %9 = icmp eq ptr %8, null
  br i1 %9, label %10, label %15

10:                                               ; preds = %7
  %11 = load i32, ptr getelementptr inbounds nuw (i8, ptr @server, i64 6288), align 8, !tbaa !61
  %12 = icmp sgt i32 %11, 3
  br i1 %12, label %14, label %13

13:                                               ; preds = %10
  tail call void (i32, ptr, ...) @_serverLog(i32 noundef 3, ptr noundef nonnull @.str.3) #19
  br label %14

14:                                               ; preds = %10, %13
  tail call void @exit(i32 noundef 1) #20
  unreachable

15:                                               ; preds = %7
  %16 = tail call ptr @dictCreate(ptr noundef nonnull @shaScriptObjectDictType) #19
  store ptr %16, ptr getelementptr inbounds nuw (i8, ptr @lctx, i64 16), align 8, !tbaa !62
  %17 = tail call ptr @listCreate() #19
  store ptr %17, ptr getelementptr inbounds nuw (i8, ptr @lctx, i64 24), align 8, !tbaa !63
  store i64 0, ptr getelementptr inbounds nuw (i8, ptr @lctx, i64 32), align 8, !tbaa !64
  tail call void @luaRegisterRedisAPI(ptr noundef nonnull %8) #19
  tail call void @lua_getfield(ptr noundef nonnull %8, i32 noundef -10002, ptr noundef nonnull @.str.4) #19
  tail call void @lua_pushstring(ptr noundef nonnull %8, ptr noundef nonnull @.str.5) #19
  tail call void @lua_pushcclosure(ptr noundef nonnull %8, ptr noundef nonnull @luaRedisBreakpointCommand, i32 noundef 0) #19
  tail call void @lua_settable(ptr noundef nonnull %8, i32 noundef -3) #19
  tail call void @lua_pushstring(ptr noundef nonnull %8, ptr noundef nonnull @.str.6) #19
  tail call void @lua_pushcclosure(ptr noundef nonnull %8, ptr noundef nonnull @luaRedisDebugCommand, i32 noundef 0) #19
  tail call void @lua_settable(ptr noundef nonnull %8, i32 noundef -3) #19
  tail call void @lua_pushstring(ptr noundef nonnull %8, ptr noundef nonnull @.str.7) #19
  tail call void @lua_pushcclosure(ptr noundef nonnull %8, ptr noundef nonnull @luaRedisReplicateCommandsCommand, i32 noundef 0) #19
  tail call void @lua_settable(ptr noundef nonnull %8, i32 noundef -3) #19
  tail call void @lua_setfield(ptr noundef nonnull %8, i32 noundef -10002, ptr noundef nonnull @.str.4) #19
  %18 = tail call i32 @luaL_loadbuffer(ptr noundef nonnull %8, ptr noundef nonnull @.str.8, i64 noundef 334, ptr noundef nonnull @.str.9) #19
  %19 = tail call i32 @lua_pcall(ptr noundef nonnull %8, i32 noundef 0, i32 noundef 0, i32 noundef 0) #19
  %20 = load ptr, ptr getelementptr inbounds nuw (i8, ptr @lctx, i64 8), align 8, !tbaa !27
  %21 = icmp eq ptr %20, null
  br i1 %21, label %22, label %27

22:                                               ; preds = %15
  %23 = tail call ptr @createClient(ptr noundef null) #19
  store ptr %23, ptr getelementptr inbounds nuw (i8, ptr @lctx, i64 8), align 8, !tbaa !27
  %24 = getelementptr inbounds nuw i8, ptr %23, i64 8
  %25 = load i64, ptr %24, align 8, !tbaa !65
  %26 = or i64 %25, 2199023255808
  store i64 %26, ptr %24, align 8, !tbaa !65
  br label %27

27:                                               ; preds = %22, %15
  tail call void @lua_pushvalue(ptr noundef nonnull %8, i32 noundef -10002) #19
  tail call void @luaSetErrorMetatable(ptr noundef nonnull %8) #19
  tail call void @luaSetTableProtectionRecursively(ptr noundef nonnull %8) #19
  tail call void @lua_settop(ptr noundef nonnull %8, i32 noundef -2) #19
  store ptr %8, ptr @lctx, align 8, !tbaa !74
  ret void
}